target datalayout = "e-m:e-p270:32:32-p271:32:32-p272:64:64-i64:64-i128:128-f80:128-n8:16:32:64-S128"
target triple = "x86_64-pc-linux-gnu"

%struct.RangeTblEntry = type { i32, ptr, ptr, i32, i32, i8, i8, i32, i32, ptr, ptr, i8, i32, i32, ptr, ptr, ptr, ptr, ptr, i8, ptr, ptr, ptr, i32, i8, ptr, ptr, ptr, ptr, double, ptr, i8, i8, ptr }
%struct.RelationData = type { %struct.RelFileLocator, ptr, i32, i32, i8, i8, i8, i8, i8, i32, i32, i32, i32, ptr, ptr, i32, %struct.LockInfoData, ptr, ptr, ptr, ptr, ptr, i8, ptr, ptr, ptr, ptr, ptr, ptr, i32, ptr, i8, ptr, ptr, i32, i8, i32, ptr, i8, ptr, ptr, ptr, ptr, ptr, ptr, ptr, i32, ptr, ptr, ptr, ptr, ptr, ptr, ptr, ptr, ptr, ptr, ptr, ptr, ptr, ptr, ptr, ptr, ptr, ptr, ptr, i32, i8, ptr }
%struct.RelFileLocator = type { i32, i32, i32 }
%struct.LockInfoData = type { %struct.LockRelId }
%struct.LockRelId = type { i32, i32 }
%struct.FormData_pg_class = type { i32, %struct.nameData, i32, i32, i32, i32, i32, i32, i32, i32, float, i32, i32, i8, i8, i8, i8, i16, i16, i8, i8, i8, i8, i8, i8, i8, i8, i32, i32, i32 }
%struct.nameData = type { [64 x i8] }
%struct.Node = type { i32 }
%struct.TupleDescData = type { i32, i32, i32, i32, ptr, [0 x %struct.CompactAttribute] }
%struct.CompactAttribute = type { i32, i16, i8, i8, i8, i8, i8, i8, i8 }
%struct.TupleConstr = type { ptr, ptr, ptr, i16, i16, i8, i8, i8 }

; Function Attrs: inlinehint nounwind uwtable
define internal ptr @newNode(i64 noundef %0, i32 noundef %1) #5 {
  %3 = alloca i64, align 8
  %4 = alloca i32, align 4
  %5 = alloca ptr, align 8
  store i64 %0, ptr %3, align 8
  store i32 %1, ptr %4, align 4
  call void @llvm.lifetime.start.p0(i64 8, ptr %5) #9
  %6 = load i64, ptr %3, align 8
  %7 = call ptr @palloc0(i64 noundef %6)
  store ptr %7, ptr %5, align 8
  %8 = load i32, ptr %4, align 4
  %9 = load ptr, ptr %5, align 8
  %10 = getelementptr inbounds nuw %struct.Node, ptr %9, i32 0, i32 0
  store i32 %8, ptr %10, align 4
  %11 = load ptr, ptr %5, align 8
  call void @llvm.lifetime.end.p0(i64 8, ptr %5) #9
  ret ptr %11
}

; Function Attrs: nounwind uwtable
define dso_local ptr @expand_generated_columns_in_expr(ptr noundef %0, ptr noundef %1, i32 noundef %2) #0 {
  %4 = alloca ptr, align 8
  %5 = alloca ptr, align 8
  %6 = alloca i32, align 4
  %7 = alloca ptr, align 8
  %8 = alloca ptr, align 8
  store ptr %0, ptr %4, align 8
  store ptr %1, ptr %5, align 8
  store i32 %2, ptr %6, align 4
  call void @llvm.lifetime.start.p0(i64 8, ptr %7) #9
  %9 = load ptr, ptr %5, align 8
  %10 = getelementptr inbounds nuw %struct.RelationData, ptr %9, i32 0, i32 14
  %11 = load ptr, ptr %10, align 8
  store ptr %11, ptr %7, align 8
  %12 = load ptr, ptr %7, align 8
  %13 = getelementptr inbounds nuw %struct.TupleDescData, ptr %12, i32 0, i32 4
  %14 = load ptr, ptr %13, align 8
  %15 = icmp ne ptr %14, null
  br i1 %15, label %16, label %46

16:                                               ; preds = %3
  %17 = load ptr, ptr %7, align 8
  %18 = getelementptr inbounds nuw %struct.TupleDescData, ptr %17, i32 0, i32 4
  %19 = load ptr, ptr %18, align 8
  %20 = getelementptr inbounds nuw %struct.TupleConstr, ptr %19, i32 0, i32 7
  %21 = load i8, ptr %20, align 2, !range !4, !noundef !5
  %22 = trunc i8 %21 to i1
  br i1 %22, label %23, label %46

23:                                               ; preds = %16
  call void @llvm.lifetime.start.p0(i64 8, ptr %8) #9
  %24 = call ptr @newNode(i64 noundef 224, i32 noundef 101)
  store ptr %24, ptr %8, align 8
  %25 = load ptr, ptr %5, align 8
  %26 = getelementptr inbounds nuw %struct.RelationData, ptr %25, i32 0, i32 13
  %27 = load ptr, ptr %26, align 8
  %28 = getelementptr inbounds nuw %struct.FormData_pg_class, ptr %27, i32 0, i32 1
  %29 = getelementptr inbounds nuw %struct.nameData, ptr %28, i32 0, i32 0
  %30 = getelementptr inbounds [64 x i8], ptr %29, i64 0, i64 0
  %31 = call ptr @makeAlias(ptr noundef %30, ptr noundef null)
  %32 = load ptr, ptr %8, align 8
  %33 = getelementptr inbounds nuw %struct.RangeTblEntry, ptr %32, i32 0, i32 2
  store ptr %31, ptr %33, align 8
  %34 = load ptr, ptr %8, align 8
  %35 = getelementptr inbounds nuw %struct.RangeTblEntry, ptr %34, i32 0, i32 3
  store i32 0, ptr %35, align 8
  %36 = load ptr, ptr %5, align 8
  %37 = getelementptr inbounds nuw %struct.RelationData, ptr %36, i32 0, i32 15
  %38 = load i32, ptr %37, align 8
  %39 = load ptr, ptr %8, align 8
  %40 = getelementptr inbounds nuw %struct.RangeTblEntry, ptr %39, i32 0, i32 4
  store i32 %38, ptr %40, align 4
  %41 = load ptr, ptr %4, align 8
  %42 = load ptr, ptr %5, align 8
  %43 = load i32, ptr %6, align 4
  %44 = load ptr, ptr %8, align 8
  %45 = call ptr @expand_generated_columns_internal(ptr noundef %41, ptr noundef %42, i32 noundef %43, ptr noundef %44, i32 noundef 0)
  store ptr %45, ptr %4, align 8
  call void @llvm.lifetime.end.p0(i64 8, ptr %8) #9
  br label %46

46:                                               ; preds = %23, %16, %3
  %47 = load ptr, ptr %4, align 8
  call void @llvm.lifetime.end.p0(i64 8, ptr %7) #9
  ret ptr %47
}