; Function Attrs: nounwind uwtable
define dso_local ptr @expand_generated_columns_in_expr(ptr noundef %0, ptr noundef %1, i32 noundef %2) local_unnamed_addr #0 {
  %4 = getelementptr inbounds nuw i8, ptr %1, i64 64
  %5 = load ptr, ptr %4, align 8
  %6 = getelementptr inbounds nuw i8, ptr %5, i64 16
  %7 = load ptr, ptr %6, align 8
  %.not = icmp eq ptr %7, null
  br i1 %.not, label %24, label %8

8:                                                ; preds = %3
  %9 = getelementptr inbounds nuw i8, ptr %7, i64 30
  %10 = load i8, ptr %9, align 2, !range !4, !noundef !5
  %11 = trunc nuw i8 %10 to i1
  br i1 %11, label %12, label %24

12:                                               ; preds = %8
  %13 = tail call noundef ptr @palloc0(i64 noundef 224) #10
  store i32 101, ptr %13, align 4
  %14 = getelementptr inbounds nuw i8, ptr %1, i64 56
  %15 = load ptr, ptr %14, align 8
  %16 = getelementptr inbounds nuw i8, ptr %15, i64 4
  %17 = tail call ptr @makeAlias(ptr noundef nonnull %16, ptr noundef null) #10
  %18 = getelementptr inbounds nuw i8, ptr %13, i64 16
  store ptr %17, ptr %18, align 8
  %19 = getelementptr inbounds nuw i8, ptr %13, i64 24
  store i32 0, ptr %19, align 8
  %20 = getelementptr inbounds nuw i8, ptr %1, i64 72
  %21 = load i32, ptr %20, align 8
  %22 = getelementptr inbounds nuw i8, ptr %13, i64 28
  store i32 %21, ptr %22, align 4
  %23 = tail call fastcc ptr @expand_generated_columns_internal(ptr noundef %0, ptr noundef nonnull %1, i32 noundef %2, ptr noundef nonnull %13, i32 noundef 0)
  br label %24

24:                                               ; preds = %12, %8, %3
  %.0 = phi ptr [ %23, %12 ], [ %0, %8 ], [ %0, %3 ]
  ret ptr %.0
}